; ModuleID = 'source-C-CXX/42/1103.cpp'
source_filename = "source-C-CXX/42/1103.cpp"
target datalayout = "e-m:e-p270:32:32-p271:32:32-p272:64:64-i64:64-f80:128-n8:16:32:64-S128"
target triple = "x86_64-pc-linux-gnu"

%"class.std::ios_base::Init" = type { i8 }
%"class.std::basic_istream" = type { i32 (...)**, i64, %"class.std::basic_ios" }
%"class.std::basic_ios" = type { %"class.std::ios_base", %"class.std::basic_ostream"*, i8, i8, %"class.std::basic_streambuf"*, %"class.std::ctype"*, %"class.std::num_put"*, %"class.std::num_get"* }
%"class.std::ios_base" = type { i32 (...)**, i64, i64, i32, i32, i32, %"struct.std::ios_base::_Callback_list"*, %"struct.std::ios_base::_Words", [8 x %"struct.std::ios_base::_Words"], i32, %"struct.std::ios_base::_Words"*, %"class.std::locale" }
%"struct.std::ios_base::_Callback_list" = type { %"struct.std::ios_base::_Callback_list"*, void (i32, %"class.std::ios_base"*, i32)*, i32, i32 }
%"struct.std::ios_base::_Words" = type { i8*, i64 }
%"class.std::locale" = type { %"class.std::locale::_Impl"* }
%"class.std::locale::_Impl" = type { i32, %"class.std::locale::facet"**, i64, %"class.std::locale::facet"**, i8** }
%"class.std::locale::facet" = type <{ i32 (...)**, i32, [4 x i8] }>
%"class.std::basic_ostream" = type { i32 (...)**, %"class.std::basic_ios" }
%"class.std::basic_streambuf" = type { i32 (...)**, i8*, i8*, i8*, i8*, i8*, i8*, %"class.std::locale" }
%"class.std::ctype" = type <{ %"class.std::locale::facet.base", [4 x i8], %struct.__locale_struct*, i8, [7 x i8], i32*, i32*, i16*, i8, [256 x i8], [256 x i8], i8, [6 x i8] }>
%"class.std::locale::facet.base" = type <{ i32 (...)**, i32 }>
%struct.__locale_struct = type { [13 x %struct.__locale_data*], i16*, i32*, i32*, [13 x i8*] }
%struct.__locale_data = type opaque
%"class.std::num_put" = type { %"class.std::locale::facet.base", [4 x i8] }
%"class.std::num_get" = type { %"class.std::locale::facet.base", [4 x i8] }

@_ZStL8__ioinit = internal global %"class.std::ios_base::Init" zeroinitializer, align 1
@__dso_handle = external hidden global i8
@_ZSt3cin = external global %"class.std::basic_istream", align 8
@_ZSt4cout = external global %"class.std::basic_ostream", align 8
@.str = private unnamed_addr constant [2 x i8] c" \00", align 1
@llvm.global_ctors = appending global [1 x { i32, void ()*, i8* }] [{ i32, void ()*, i8* } { i32 65535, void ()* @_GLOBAL__sub_I_1103.cpp, i8* null }]

declare void @_ZNSt8ios_base4InitC1Ev(%"class.std::ios_base::Init"* nonnull align 1 dereferenceable(1)) unnamed_addr #0

; Function Attrs: nounwind
declare void @_ZNSt8ios_base4InitD1Ev(%"class.std::ios_base::Init"* nonnull align 1 dereferenceable(1)) unnamed_addr #1

; Function Attrs: nofree nounwind
declare i32 @__cxa_atexit(void (i8*)*, i8*, i8*) local_unnamed_addr #2

; Function Attrs: mustprogress norecurse sspstrong uwtable
define dso_local i32 @main() local_unnamed_addr #3 {
  %1 = alloca i32, align 4
  %2 = bitcast i32* %1 to i8*
  call void @llvm.lifetime.start.p0i8(i64 4, i8* nonnull %2) #8
  %3 = call nonnull align 8 dereferenceable(16) %"class.std::basic_istream"* @_ZNSirsERi(%"class.std::basic_istream"* nonnull align 8 dereferenceable(16) @_ZSt3cin, i32* nonnull align 4 dereferenceable(4) %1)
  %4 = load i32, i32* %1, align 4, !tbaa !5
  %5 = icmp slt i32 %4, 6
  br i1 %5, label %98, label %6

6:                                                ; preds = %0, %93
  %7 = phi i32 [ %94, %93 ], [ 3, %0 ]
  %8 = sitofp i32 %7 to double
  %9 = call double @sqrt(double %8) #8
  %10 = fcmp ult double %9, 2.000000e+00
  %11 = and i32 %7, 1
  %12 = icmp eq i32 %11, 0
  %13 = select i1 %10, i1 true, i1 %12
  br i1 %13, label %23, label %14

14:                                               ; preds = %6, %19
  %15 = phi i32 [ %22, %19 ], [ 3, %6 ]
  %16 = sitofp i32 %15 to double
  %17 = call double @sqrt(double %8) #8
  %18 = fcmp ult double %17, %16
  br i1 %18, label %23, label %19, !llvm.loop !9

19:                                               ; preds = %14
  %20 = urem i32 %7, %15
  %21 = icmp eq i32 %20, 0
  %22 = add nuw nsw i32 %15, 1
  br i1 %21, label %23, label %14, !llvm.loop !9

23:                                               ; preds = %19, %14, %6
  %24 = phi double [ 2.000000e+00, %6 ], [ %16, %14 ], [ %16, %19 ]
  %25 = call double @sqrt(double %8) #8
  %26 = fcmp olt double %25, %24
  br i1 %26, label %27, label %93

27:                                               ; preds = %23
  %28 = load i32, i32* %1, align 4, !tbaa !5
  %29 = sub nsw i32 %28, %7
  %30 = sitofp i32 %29 to double
  %31 = call double @sqrt(double %30) #8
  %32 = fcmp ult double %31, 2.000000e+00
  br i1 %32, label %51, label %33

33:                                               ; preds = %27
  %34 = load i32, i32* %1, align 4, !tbaa !5
  %35 = sub nsw i32 %34, %7
  %36 = and i32 %35, 1
  %37 = icmp eq i32 %36, 0
  br i1 %37, label %51, label %38

38:                                               ; preds = %33, %45
  %39 = phi i32 [ %50, %45 ], [ 3, %33 ]
  %40 = phi i32 [ %47, %45 ], [ %35, %33 ]
  %41 = sitofp i32 %39 to double
  %42 = sitofp i32 %40 to double
  %43 = call double @sqrt(double %42) #8
  %44 = fcmp ult double %43, %41
  br i1 %44, label %51, label %45, !llvm.loop !11

45:                                               ; preds = %38
  %46 = load i32, i32* %1, align 4, !tbaa !5
  %47 = sub nsw i32 %46, %7
  %48 = srem i32 %47, %39
  %49 = icmp eq i32 %48, 0
  %50 = add nuw nsw i32 %39, 1
  br i1 %49, label %51, label %38, !llvm.loop !11

51:                                               ; preds = %45, %38, %33, %27
  %52 = phi double [ 2.000000e+00, %27 ], [ 2.000000e+00, %33 ], [ %41, %38 ], [ %41, %45 ]
  %53 = load i32, i32* %1, align 4, !tbaa !5
  %54 = sub nsw i32 %53, %7
  %55 = sitofp i32 %54 to double
  %56 = call double @sqrt(double %55) #8
  %57 = fcmp olt double %56, %52
  br i1 %57, label %58, label %93

58:                                               ; preds = %51
  %59 = call nonnull align 8 dereferenceable(8) %"class.std::basic_ostream"* @_ZNSolsEi(%"class.std::basic_ostream"* nonnull align 8 dereferenceable(8) @_ZSt4cout, i32 %7)
  %60 = call nonnull align 8 dereferenceable(8) %"class.std::basic_ostream"* @_ZSt16__ostream_insertIcSt11char_traitsIcEERSt13basic_ostreamIT_T0_ES6_PKS3_l(%"class.std::basic_ostream"* nonnull align 8 dereferenceable(8) %59, i8* nonnull getelementptr inbounds ([2 x i8], [2 x i8]* @.str, i64 0, i64 0), i64 1)
  %61 = load i32, i32* %1, align 4, !tbaa !5
  %62 = sub nsw i32 %61, %7
  %63 = call nonnull align 8 dereferenceable(8) %"class.std::basic_ostream"* @_ZNSolsEi(%"class.std::basic_ostream"* nonnull align 8 dereferenceable(8) %59, i32 %62)
  %64 = bitcast %"class.std::basic_ostream"* %63 to i8**
  %65 = load i8*, i8** %64, align 8, !tbaa !12
  %66 = getelementptr i8, i8* %65, i64 -24
  %67 = bitcast i8* %66 to i64*
  %68 = load i64, i64* %67, align 8
  %69 = bitcast %"class.std::basic_ostream"* %63 to i8*
  %70 = add nsw i64 %68, 240
  %71 = getelementptr inbounds i8, i8* %69, i64 %70
  %72 = bitcast i8* %71 to %"class.std::ctype"**
  %73 = load %"class.std::ctype"*, %"class.std::ctype"** %72, align 8, !tbaa !14
  %74 = icmp eq %"class.std::ctype"* %73, null
  br i1 %74, label %75, label %76

75:                                               ; preds = %58
  call void @_ZSt16__throw_bad_castv() #9
  unreachable

76:                                               ; preds = %58
  %77 = getelementptr inbounds %"class.std::ctype", %"class.std::ctype"* %73, i64 0, i32 8
  %78 = load i8, i8* %77, align 8, !tbaa !18
  %79 = icmp eq i8 %78, 0
  br i1 %79, label %83, label %80

80:                                               ; preds = %76
  %81 = getelementptr inbounds %"class.std::ctype", %"class.std::ctype"* %73, i64 0, i32 9, i64 10
  %82 = load i8, i8* %81, align 1, !tbaa !20
  br label %89

83:                                               ; preds = %76
  call void @_ZNKSt5ctypeIcE13_M_widen_initEv(%"class.std::ctype"* nonnull align 8 dereferenceable(570) %73)
  %84 = bitcast %"class.std::ctype"* %73 to i8 (%"class.std::ctype"*, i8)***
  %85 = load i8 (%"class.std::ctype"*, i8)**, i8 (%"class.std::ctype"*, i8)*** %84, align 8, !tbaa !12
  %86 = getelementptr inbounds i8 (%"class.std::ctype"*, i8)*, i8 (%"class.std::ctype"*, i8)** %85, i64 6
  %87 = load i8 (%"class.std::ctype"*, i8)*, i8 (%"class.std::ctype"*, i8)** %86, align 8
  %88 = call signext i8 %87(%"class.std::ctype"* nonnull align 8 dereferenceable(570) %73, i8 signext 10)
  br label %89

89:                                               ; preds = %80, %83
  %90 = phi i8 [ %82, %80 ], [ %88, %83 ]
  %91 = call nonnull align 8 dereferenceable(8) %"class.std::basic_ostream"* @_ZNSo3putEc(%"class.std::basic_ostream"* nonnull align 8 dereferenceable(8) %63, i8 signext %90)
  %92 = call nonnull align 8 dereferenceable(8) %"class.std::basic_ostream"* @_ZNSo5flushEv(%"class.std::basic_ostream"* nonnull align 8 dereferenceable(8) %91)
  br label %93

93:                                               ; preds = %23, %89, %51
  %94 = add nuw nsw i32 %7, 2
  %95 = load i32, i32* %1, align 4, !tbaa !5
  %96 = sdiv i32 %95, 2
  %97 = icmp sgt i32 %94, %96
  br i1 %97, label %98, label %6, !llvm.loop !21

98:                                               ; preds = %93, %0
  call void @llvm.lifetime.end.p0i8(i64 4, i8* nonnull %2) #8
  ret i32 0
}

; Function Attrs: argmemonly mustprogress nofree nosync nounwind willreturn
declare void @llvm.lifetime.start.p0i8(i64 immarg, i8* nocapture) #4

declare nonnull align 8 dereferenceable(16) %"class.std::basic_istream"* @_ZNSirsERi(%"class.std::basic_istream"* nonnull align 8 dereferenceable(16), i32* nonnull align 4 dereferenceable(4)) local_unnamed_addr #0

declare nonnull align 8 dereferenceable(8) %"class.std::basic_ostream"* @_ZNSolsEi(%"class.std::basic_ostream"* nonnull align 8 dereferenceable(8), i32) local_unnamed_addr #0

; Function Attrs: argmemonly mustprogress nofree nosync nounwind willreturn
declare void @llvm.lifetime.end.p0i8(i64 immarg, i8* nocapture) #4

; Function Attrs: mustprogress nofree nounwind willreturn
declare double @sqrt(double) local_unnamed_addr #5

declare nonnull align 8 dereferenceable(8) %"class.std::basic_ostream"* @_ZSt16__ostream_insertIcSt11char_traitsIcEERSt13basic_ostreamIT_T0_ES6_PKS3_l(%"class.std::basic_ostream"* nonnull align 8 dereferenceable(8), i8*, i64) local_unnamed_addr #0

declare nonnull align 8 dereferenceable(8) %"class.std::basic_ostream"* @_ZNSo3putEc(%"class.std::basic_ostream"* nonnull align 8 dereferenceable(8), i8 signext) local_unnamed_addr #0

declare nonnull align 8 dereferenceable(8) %"class.std::basic_ostream"* @_ZNSo5flushEv(%"class.std::basic_ostream"* nonnull align 8 dereferenceable(8)) local_unnamed_addr #0

; Function Attrs: noreturn
declare void @_ZSt16__throw_bad_castv() local_unnamed_addr #6

declare void @_ZNKSt5ctypeIcE13_M_widen_initEv(%"class.std::ctype"* nonnull align 8 dereferenceable(570)) local_unnamed_addr #0

; Function Attrs: sspstrong uwtable
define internal void @_GLOBAL__sub_I_1103.cpp() #7 section ".text.startup" {
  tail call void @_ZNSt8ios_base4InitC1Ev(%"class.std::ios_base::Init"* nonnull align 1 dereferenceable(1) @_ZStL8__ioinit)
  %1 = tail call i32 @__cxa_atexit(void (i8*)* bitcast (void (%"class.std::ios_base::Init"*)* @_ZNSt8ios_base4InitD1Ev to void (i8*)*), i8* getelementptr inbounds (%"class.std::ios_base::Init", %"class.std::ios_base::Init"* @_ZStL8__ioinit, i64 0, i32 0), i8* nonnull @__dso_handle) #8
  ret void
}


!llvm.module.flags = !{!0, !1, !2, !3}
!llvm.ident = !{!4}

!0 = !{i32 1, !"wchar_size", i32 4}
!1 = !{i32 7, !"PIC Level", i32 2}
!2 = !{i32 7, !"PIE Level", i32 2}
!3 = !{i32 7, !"uwtable", i32 1}
!4 = !{!"clang version 13.0.0"}
!5 = !{!6, !6, i64 0}
!6 = !{!"int", !7, i64 0}
!7 = !{!"omnipotent char", !8, i64 0}
!8 = !{!"Simple C++ TBAA"}
!9 = distinct !{!9, !10}
!10 = !{!"llvm.loop.mustprogress"}
!11 = distinct !{!11, !10}
!12 = !{!13, !13, i64 0}
!13 = !{!"vtable pointer", !8, i64 0}
!14 = !{!15, !16, i64 240}
!15 = !{!"_ZTSSt9basic_iosIcSt11char_traitsIcEE", !16, i64 216, !7, i64 224, !17, i64 225, !16, i64 232, !16, i64 240, !16, i64 248, !16, i64 256}
!16 = !{!"any pointer", !7, i64 0}
!17 = !{!"bool", !7, i64 0}
!18 = !{!19, !7, i64 56}
!19 = !{!"_ZTSSt5ctypeIcE", !16, i64 16, !17, i64 24, !16, i64 32, !16, i64 40, !16, i64 48, !7, i64 56, !7, i64 57, !7, i64 313, !7, i64 569}
!20 = !{!7, !7, i64 0}
!21 = distinct !{!21, !10}
